target datalayout = "e-m:e-p270:32:32-p271:32:32-p272:64:64-i64:64-i128:128-f80:128-n8:16:32:64-S128"
target triple = "x86_64-pc-linux-gnu"

%"class.cv::Mat" = type { i32, i32, i32, i32, ptr, ptr, ptr, ptr, ptr, ptr, %"struct.cv::MatSize", %"struct.cv::MatStep" }
%"struct.cv::MatSize" = type { ptr }
%"struct.cv::MatStep" = type { ptr, [2 x i64] }
%"class.cv::Vec" = type { %"class.cv::Matx" }
%"class.cv::Matx" = type { [3 x double] }
%"class.cv::Matx.0" = type { [16 x double] }
%"class.cv::Vec.1" = type { %"class.cv::Matx.2" }
%"class.cv::Matx.2" = type { [4 x double] }
%"class.cv::ppf_match_3d::Pose3D" = type { ptr, double, double, i64, i64, %"class.cv::Matx.0", double, %"class.cv::Vec", %"class.cv::Vec.1" }
%"struct.std::_Vector_base" = type { %"struct.std::_Vector_base<cv::Ptr<cv::ppf_match_3d::Pose3D>, std::allocator<cv::Ptr<cv::ppf_match_3d::Pose3D>>>::_Vector_impl" }
%"struct.std::_Vector_base<cv::Ptr<cv::ppf_match_3d::Pose3D>, std::allocator<cv::Ptr<cv::ppf_match_3d::Pose3D>>>::_Vector_impl" = type { %"struct.std::_Vector_base<cv::Ptr<cv::ppf_match_3d::Pose3D>, std::allocator<cv::Ptr<cv::ppf_match_3d::Pose3D>>>::_Vector_impl_data" }
%"struct.std::_Vector_base<cv::Ptr<cv::ppf_match_3d::Pose3D>, std::allocator<cv::Ptr<cv::ppf_match_3d::Pose3D>>>::_Vector_impl_data" = type { ptr, ptr, ptr }
%"struct.cv::Ptr" = type { %"class.std::shared_ptr" }
%"class.std::shared_ptr" = type { %"class.std::__shared_ptr" }
%"class.std::__shared_ptr" = type { ptr, %"class.std::__shared_count" }
%"class.std::__shared_count" = type { ptr }

; Function Attrs: mustprogress nounwind uwtable
define linkonce_odr hidden noundef ptr @_ZNKSt12__shared_ptrIN2cv12ppf_match_3d6Pose3DELN9__gnu_cxx12_Lock_policyE2EE3getEv(ptr noundef nonnull align 8 dereferenceable(16) %0) #14 comdat align 2 {
  %2 = alloca ptr, align 8
  store ptr %0, ptr %2, align 8, !tbaa !159
  %3 = load ptr, ptr %2, align 8
  %4 = getelementptr inbounds nuw %"class.std::__shared_ptr", ptr %3, i32 0, i32 0
  %5 = load ptr, ptr %4, align 8, !tbaa !161
  ret ptr %5
}

; Function Attrs: inlinehint mustprogress nounwind uwtable
define linkonce_odr hidden noundef nonnull align 8 dereferenceable(8) ptr @_ZN2cv4MatxIdLi4ELi4EEclEii(ptr noundef nonnull align 8 dereferenceable(128) %0, i32 noundef %1, i32 noundef %2) #8 comdat align 2 {
  %4 = alloca ptr, align 8
  %5 = alloca i32, align 4
  %6 = alloca i32, align 4
  store ptr %0, ptr %4, align 8, !tbaa !12
  store i32 %1, ptr %5, align 4, !tbaa !24
  store i32 %2, ptr %6, align 4, !tbaa !24
  %7 = load ptr, ptr %4, align 8
  %8 = getelementptr inbounds nuw %"class.cv::Matx.0", ptr %7, i32 0, i32 0
  %9 = load i32, ptr %5, align 4, !tbaa !24
  %10 = mul nsw i32 %9, 4
  %11 = load i32, ptr %6, align 4, !tbaa !24
  %12 = add nsw i32 %10, %11
  %13 = sext i32 %12 to i64
  %14 = getelementptr inbounds [16 x double], ptr %8, i64 0, i64 %13
  ret ptr %14
}

; Function Attrs: inlinehint mustprogress nounwind uwtable
define linkonce_odr hidden void @_ZN2cv4MatxIdLi4ELi4EEC2Ev(ptr noundef nonnull align 8 dereferenceable(128) %0) unnamed_addr #8 comdat align 2 {
  %2 = alloca ptr, align 8
  %3 = alloca i32, align 4
  store ptr %0, ptr %2, align 8, !tbaa !12
  %4 = load ptr, ptr %2, align 8
  call void @llvm.lifetime.start.p0(i64 4, ptr %3) #3
  store i32 0, ptr %3, align 4, !tbaa !24
  br label %5

5:                                                ; preds = %14, %1
  %6 = load i32, ptr %3, align 4, !tbaa !24
  %7 = icmp slt i32 %6, 16
  br i1 %7, label %9, label %8

8:                                                ; preds = %5
  call void @llvm.lifetime.end.p0(i64 4, ptr %3) #3
  br label %17

9:                                                ; preds = %5
  %10 = getelementptr inbounds nuw %"class.cv::Matx.0", ptr %4, i32 0, i32 0
  %11 = load i32, ptr %3, align 4, !tbaa !24
  %12 = sext i32 %11 to i64
  %13 = getelementptr inbounds [16 x double], ptr %10, i64 0, i64 %12
  store double 0.000000e+00, ptr %13, align 8, !tbaa !30
  br label %14

14:                                               ; preds = %9
  %15 = load i32, ptr %3, align 4, !tbaa !24
  %16 = add nsw i32 %15, 1
  store i32 %16, ptr %3, align 4, !tbaa !24
  br label %5, !llvm.loop !179

17:                                               ; preds = %8
  ret void
}

; Function Attrs: mustprogress nounwind uwtable
define linkonce_odr hidden noundef ptr @_ZNK2cv3PtrINS_12ppf_match_3d6Pose3DEEptEv(ptr noundef nonnull align 8 dereferenceable(16) %0) #14 comdat align 2 {
  %2 = alloca ptr, align 8
  store ptr %0, ptr %2, align 8, !tbaa !111
  %3 = load ptr, ptr %2, align 8
  %4 = call noundef ptr @_ZNKSt12__shared_ptrIN2cv12ppf_match_3d6Pose3DELN9__gnu_cxx12_Lock_policyE2EE3getEv(ptr noundef nonnull align 8 dereferenceable(16) %3) #3
  ret ptr %4
}

; Function Attrs: mustprogress nounwind uwtable
define linkonce_odr hidden noundef nonnull align 8 dereferenceable(16) ptr @_ZNSt6vectorIN2cv3PtrINS0_12ppf_match_3d6Pose3DEEESaIS4_EEixEm(ptr noundef nonnull align 8 dereferenceable(24) %0, i64 noundef %1) #14 comdat align 2 {
  %3 = alloca ptr, align 8
  %4 = alloca i64, align 8
  store ptr %0, ptr %3, align 8, !tbaa !104
  store i64 %1, ptr %4, align 8, !tbaa !38
  %5 = load ptr, ptr %3, align 8
  %6 = getelementptr inbounds nuw %"struct.std::_Vector_base", ptr %5, i32 0, i32 0
  %7 = getelementptr inbounds nuw %"struct.std::_Vector_base<cv::Ptr<cv::ppf_match_3d::Pose3D>, std::allocator<cv::Ptr<cv::ppf_match_3d::Pose3D>>>::_Vector_impl_data", ptr %6, i32 0, i32 0
  %8 = load ptr, ptr %7, align 8, !tbaa !110
  %9 = load i64, ptr %4, align 8, !tbaa !38
  %10 = getelementptr inbounds nuw %"struct.cv::Ptr", ptr %8, i64 %9
  ret ptr %10
}

; Function Attrs: inlinehint mustprogress uwtable
define linkonce_odr hidden void @_ZN2cv4MatxIdLi4ELi4EE3eyeEv(ptr dead_on_unwind noalias writable sret(%"class.cv::Matx.0") align 8 %0) #7 comdat align 2 {
  %2 = alloca i32, align 4
  call void @_ZN2cv4MatxIdLi4ELi4EEC2Ev(ptr noundef nonnull align 8 dereferenceable(128) %0)
  call void @llvm.lifetime.start.p0(i64 4, ptr %2) #3
  store i32 0, ptr %2, align 4, !tbaa !24
  br label %3

3:                                                ; preds = %11, %1
  %4 = load i32, ptr %2, align 4, !tbaa !24
  %5 = icmp slt i32 %4, 4
  br i1 %5, label %7, label %6

6:                                                ; preds = %3
  call void @llvm.lifetime.end.p0(i64 4, ptr %2) #3
  br label %14

7:                                                ; preds = %3
  %8 = load i32, ptr %2, align 4, !tbaa !24
  %9 = load i32, ptr %2, align 4, !tbaa !24
  %10 = call noundef nonnull align 8 dereferenceable(8) ptr @_ZN2cv4MatxIdLi4ELi4EEclEii(ptr noundef nonnull align 8 dereferenceable(128) %0, i32 noundef %8, i32 noundef %9)
  store double 1.000000e+00, ptr %10, align 8, !tbaa !30
  br label %11

11:                                               ; preds = %7
  %12 = load i32, ptr %2, align 4, !tbaa !24
  %13 = add nsw i32 %12, 1
  store i32 %13, ptr %2, align 4, !tbaa !24
  br label %3, !llvm.loop !81

14:                                               ; preds = %6
  ret void
}

; Function Attrs: mustprogress nounwind uwtable
define linkonce_odr hidden noundef i64 @_ZNKSt6vectorIN2cv3PtrINS0_12ppf_match_3d6Pose3DEEESaIS4_EE4sizeEv(ptr noundef nonnull align 8 dereferenceable(24) %0) #14 comdat align 2 {
  %2 = alloca ptr, align 8
  store ptr %0, ptr %2, align 8, !tbaa !104
  %3 = load ptr, ptr %2, align 8
  %4 = getelementptr inbounds nuw %"struct.std::_Vector_base", ptr %3, i32 0, i32 0
  %5 = getelementptr inbounds nuw %"struct.std::_Vector_base<cv::Ptr<cv::ppf_match_3d::Pose3D>, std::allocator<cv::Ptr<cv::ppf_match_3d::Pose3D>>>::_Vector_impl_data", ptr %4, i32 0, i32 1
  %6 = load ptr, ptr %5, align 8, !tbaa !107
  %7 = getelementptr inbounds nuw %"struct.std::_Vector_base", ptr %3, i32 0, i32 0
  %8 = getelementptr inbounds nuw %"struct.std::_Vector_base<cv::Ptr<cv::ppf_match_3d::Pose3D>, std::allocator<cv::Ptr<cv::ppf_match_3d::Pose3D>>>::_Vector_impl_data", ptr %7, i32 0, i32 0
  %9 = load ptr, ptr %8, align 8, !tbaa !110
  %10 = ptrtoint ptr %6 to i64
  %11 = ptrtoint ptr %9 to i64
  %12 = sub i64 %10, %11
  %13 = sdiv exact i64 %12, 16
  ret i64 %13
}

; Function Attrs: mustprogress uwtable
define noundef i32 @_ZN2cv12ppf_match_3d3ICP20registerModelToSceneERKNS_3MatES4_RSt6vectorINS_3PtrINS0_6Pose3DEEESaIS8_EE(ptr noundef nonnull align 8 dereferenceable(32) %0, ptr noundef nonnull align 8 dereferenceable(96) %1, ptr noundef nonnull align 8 dereferenceable(96) %2, ptr noundef nonnull align 8 dereferenceable(24) %3) #4 align 2 personality ptr @__gxx_personality_v0 {
  %5 = alloca ptr, align 8
  %6 = alloca ptr, align 8
  %7 = alloca ptr, align 8
  %8 = alloca ptr, align 8
  %9 = alloca i32, align 4
  %10 = alloca %"class.cv::Matx.0", align 8
  %11 = alloca %"class.cv::Mat", align 8
  %12 = alloca %"class.cv::Mat", align 8
  %13 = alloca ptr, align 8
  %14 = alloca i32, align 4
  store ptr %0, ptr %5, align 8, !tbaa !3
  store ptr %1, ptr %6, align 8, !tbaa !8
  store ptr %2, ptr %7, align 8, !tbaa !8
  store ptr %3, ptr %8, align 8, !tbaa !104
  %15 = load ptr, ptr %5, align 8
  call void @llvm.lifetime.start.p0(i64 4, ptr %9) #3
  store i32 0, ptr %9, align 4, !tbaa !24
  br label %16

16:                                               ; preds = %47, %4
  %17 = load i32, ptr %9, align 4, !tbaa !24
  %18 = load ptr, ptr %8, align 8, !tbaa !104
  %19 = call noundef i64 @_ZNKSt6vectorIN2cv3PtrINS0_12ppf_match_3d6Pose3DEEESaIS4_EE4sizeEv(ptr noundef nonnull align 8 dereferenceable(24) %18) #3
  %20 = trunc i64 %19 to i32
  %21 = icmp slt i32 %17, %20
  br i1 %21, label %23, label %22

22:                                               ; preds = %16
  call void @llvm.lifetime.end.p0(i64 4, ptr %9) #3
  br label %59

23:                                               ; preds = %16
  call void @llvm.lifetime.start.p0(i64 128, ptr %10) #3
  call void @_ZN2cv4MatxIdLi4ELi4EE3eyeEv(ptr dead_on_unwind writable sret(%"class.cv::Matx.0") align 8 %10)
  call void @llvm.lifetime.start.p0(i64 96, ptr %11) #3
  %24 = load ptr, ptr %6, align 8, !tbaa !8
  call void @_ZN2cv3MatC1ERKS0_(ptr noundef nonnull align 8 dereferenceable(96) %12, ptr noundef nonnull align 8 dereferenceable(96) %24)
  %25 = load ptr, ptr %8, align 8, !tbaa !104
  %26 = load i32, ptr %9, align 4, !tbaa !24
  %27 = sext i32 %26 to i64
  %28 = call noundef nonnull align 8 dereferenceable(16) ptr @_ZNSt6vectorIN2cv3PtrINS0_12ppf_match_3d6Pose3DEEESaIS4_EEixEm(ptr noundef nonnull align 8 dereferenceable(24) %25, i64 noundef %27) #3
  %29 = call noundef ptr @_ZNK2cv3PtrINS_12ppf_match_3d6Pose3DEEptEv(ptr noundef nonnull align 8 dereferenceable(16) %28) #3
  %30 = getelementptr inbounds nuw %"class.cv::ppf_match_3d::Pose3D", ptr %29, i32 0, i32 5
  invoke void @_ZN2cv12ppf_match_3d15transformPCPoseENS_3MatERKNS_4MatxIdLi4ELi4EEE(ptr dead_on_unwind writable sret(%"class.cv::Mat") align 8 %11, ptr noundef %12, ptr noundef nonnull align 8 dereferenceable(128) %30)
          to label %31 unwind label %50

31:                                               ; preds = %23
  call void @_ZN2cv3MatD1Ev(ptr noundef nonnull align 8 dereferenceable(96) %12) #3
  %32 = load ptr, ptr %7, align 8, !tbaa !8
  %33 = load ptr, ptr %8, align 8, !tbaa !104
  %34 = load i32, ptr %9, align 4, !tbaa !24
  %35 = sext i32 %34 to i64
  %36 = call noundef nonnull align 8 dereferenceable(16) ptr @_ZNSt6vectorIN2cv3PtrINS0_12ppf_match_3d6Pose3DEEESaIS4_EEixEm(ptr noundef nonnull align 8 dereferenceable(24) %33, i64 noundef %35) #3
  %37 = call noundef ptr @_ZNK2cv3PtrINS_12ppf_match_3d6Pose3DEEptEv(ptr noundef nonnull align 8 dereferenceable(16) %36) #3
  %38 = getelementptr inbounds nuw %"class.cv::ppf_match_3d::Pose3D", ptr %37, i32 0, i32 2
  %39 = invoke noundef i32 @_ZN2cv12ppf_match_3d3ICP20registerModelToSceneERKNS_3MatES4_RdRNS_4MatxIdLi4ELi4EEE(ptr noundef nonnull align 8 dereferenceable(32) %15, ptr noundef nonnull align 8 dereferenceable(96) %11, ptr noundef nonnull align 8 dereferenceable(96) %32, ptr noundef nonnull align 8 dereferenceable(8) %38, ptr noundef nonnull align 8 dereferenceable(128) %10)
          to label %40 unwind label %54

40:                                               ; preds = %31
  %41 = load ptr, ptr %8, align 8, !tbaa !104
  %42 = load i32, ptr %9, align 4, !tbaa !24
  %43 = sext i32 %42 to i64
  %44 = call noundef nonnull align 8 dereferenceable(16) ptr @_ZNSt6vectorIN2cv3PtrINS0_12ppf_match_3d6Pose3DEEESaIS4_EEixEm(ptr noundef nonnull align 8 dereferenceable(24) %41, i64 noundef %43) #3
  %45 = call noundef ptr @_ZNK2cv3PtrINS_12ppf_match_3d6Pose3DEEptEv(ptr noundef nonnull align 8 dereferenceable(16) %44) #3
  invoke void @_ZN2cv12ppf_match_3d6Pose3D10appendPoseERNS_4MatxIdLi4ELi4EEE(ptr noundef nonnull align 8 dereferenceable(232) %45, ptr noundef nonnull align 8 dereferenceable(128) %10)
          to label %46 unwind label %54

46:                                               ; preds = %40
  call void @_ZN2cv3MatD1Ev(ptr noundef nonnull align 8 dereferenceable(96) %11) #3
  call void @llvm.lifetime.end.p0(i64 96, ptr %11) #3
  call void @llvm.lifetime.end.p0(i64 128, ptr %10) #3
  br label %47

47:                                               ; preds = %46
  %48 = load i32, ptr %9, align 4, !tbaa !24
  %49 = add nsw i32 %48, 1
  store i32 %49, ptr %9, align 4, !tbaa !24
  br label %16, !llvm.loop !106

50:                                               ; preds = %23
  %51 = landingpad { ptr, i32 }
          cleanup
  %52 = extractvalue { ptr, i32 } %51, 0
  store ptr %52, ptr %13, align 8
  %53 = extractvalue { ptr, i32 } %51, 1
  store i32 %53, ptr %14, align 4
  call void @_ZN2cv3MatD1Ev(ptr noundef nonnull align 8 dereferenceable(96) %12) #3
  br label %58

54:                                               ; preds = %40, %31
  %55 = landingpad { ptr, i32 }
          cleanup
  %56 = extractvalue { ptr, i32 } %55, 0
  store ptr %56, ptr %13, align 8
  %57 = extractvalue { ptr, i32 } %55, 1
  store i32 %57, ptr %14, align 4
  call void @_ZN2cv3MatD1Ev(ptr noundef nonnull align 8 dereferenceable(96) %11) #3
  br label %58

58:                                               ; preds = %54, %50
  call void @llvm.lifetime.end.p0(i64 96, ptr %11) #3
  call void @llvm.lifetime.end.p0(i64 128, ptr %10) #3
  call void @llvm.lifetime.end.p0(i64 4, ptr %9) #3
  br label %60

59:                                               ; preds = %22
  ret i32 0

60:                                               ; preds = %58
  %61 = load ptr, ptr %13, align 8
  %62 = load i32, ptr %14, align 4
  %63 = insertvalue { ptr, i32 } poison, ptr %61, 0
  %64 = insertvalue { ptr, i32 } %63, i32 %62, 1
  resume { ptr, i32 } %64
}