; Function Attrs: mustprogress uwtable
define noundef i32 @_ZN2cv12ppf_match_3d3ICP20registerModelToSceneERKNS_3MatES4_RSt6vectorINS_3PtrINS0_6Pose3DEEESaIS8_EE(ptr noundef nonnull readonly align 8 captures(none) dereferenceable(32) %0, ptr noundef nonnull align 8 dereferenceable(96) %1, ptr noundef nonnull align 8 dereferenceable(96) %2, ptr noundef nonnull readonly align 8 captures(none) dereferenceable(24) %3) local_unnamed_addr #10 align 2 personality ptr @__gxx_personality_v0 {
  %5 = alloca %"class.cv::Matx.0", align 8
  %6 = alloca %"class.cv::Mat", align 8
  %7 = alloca %"class.cv::Mat", align 8
  %8 = getelementptr inbounds nuw i8, ptr %3, i64 8
  %9 = load ptr, ptr %8, align 8, !tbaa !180
  %10 = load ptr, ptr %3, align 8, !tbaa !183
  %11 = ptrtoint ptr %9 to i64
  %12 = ptrtoint ptr %10 to i64
  %13 = sub i64 %11, %12
  %14 = lshr exact i64 %13, 4
  %15 = trunc i64 %14 to i32
  %16 = icmp sgt i32 %15, 0
  br i1 %16, label %.lr.ph, label %._crit_edge

._crit_edge:                                      ; preds = %34, %4
  ret i32 0

.lr.ph:                                           ; preds = %4, %34
  %indvars.iv = phi i64 [ %indvars.iv.next, %34 ], [ 0, %4 ]
  call void @llvm.lifetime.start.p0(i64 128, ptr nonnull %5) #21
  call void @llvm.memset.p0.i64(ptr noundef nonnull align 8 dereferenceable(128) %5, i8 0, i64 128, i1 false), !tbaa !26, !alias.scope !184
  br label %17

17:                                               ; preds = %17, %.lr.ph
  %indvars.iv.i = phi i64 [ 0, %.lr.ph ], [ %indvars.iv.next.i, %17 ]
  %18 = mul nuw nsw i64 %indvars.iv.i, 5
  %19 = getelementptr inbounds nuw [16 x double], ptr %5, i64 0, i64 %18
  store double 1.000000e+00, ptr %19, align 8, !tbaa !26, !alias.scope !184
  %indvars.iv.next.i = add nuw nsw i64 %indvars.iv.i, 1
  %exitcond.not.i = icmp eq i64 %indvars.iv.next.i, 4
  br i1 %exitcond.not.i, label %_ZN2cv4MatxIdLi4ELi4EE3eyeEv.exit, label %17, !llvm.loop !51

_ZN2cv4MatxIdLi4ELi4EE3eyeEv.exit:                ; preds = %17
  call void @llvm.lifetime.start.p0(i64 96, ptr nonnull %6) #21
  call void @_ZN2cv3MatC1ERKS0_(ptr noundef nonnull align 8 dereferenceable(96) %7, ptr noundef nonnull align 8 dereferenceable(96) %1)
  %20 = load ptr, ptr %3, align 8, !tbaa !183
  %21 = getelementptr inbounds nuw %"struct.cv::Ptr", ptr %20, i64 %indvars.iv
  %22 = load ptr, ptr %21, align 8, !tbaa !187
  %23 = getelementptr inbounds nuw i8, ptr %22, i64 40
  invoke void @_ZN2cv12ppf_match_3d15transformPCPoseENS_3MatERKNS_4MatxIdLi4ELi4EEE(ptr dead_on_unwind nonnull writable sret(%"class.cv::Mat") align 8 %6, ptr noundef nonnull %7, ptr noundef nonnull align 8 dereferenceable(128) %23)
          to label %24 unwind label %42

24:                                               ; preds = %_ZN2cv4MatxIdLi4ELi4EE3eyeEv.exit
  call void @_ZN2cv3MatD1Ev(ptr noundef nonnull align 8 dereferenceable(96) %7) #21
  %25 = load ptr, ptr %3, align 8, !tbaa !183
  %26 = getelementptr inbounds nuw %"struct.cv::Ptr", ptr %25, i64 %indvars.iv
  %27 = load ptr, ptr %26, align 8, !tbaa !187
  %28 = getelementptr inbounds nuw i8, ptr %27, i64 16
  %29 = invoke noundef i32 @_ZN2cv12ppf_match_3d3ICP20registerModelToSceneERKNS_3MatES4_RdRNS_4MatxIdLi4ELi4EEE(ptr noundef nonnull align 8 dereferenceable(32) %0, ptr noundef nonnull align 8 dereferenceable(96) %6, ptr noundef nonnull align 8 dereferenceable(96) %2, ptr noundef nonnull align 8 dereferenceable(8) %28, ptr noundef nonnull align 8 dereferenceable(128) %5)
          to label %30 unwind label %44

30:                                               ; preds = %24
  %31 = load ptr, ptr %3, align 8, !tbaa !183
  %32 = getelementptr inbounds nuw %"struct.cv::Ptr", ptr %31, i64 %indvars.iv
  %33 = load ptr, ptr %32, align 8, !tbaa !187
  invoke void @_ZN2cv12ppf_match_3d6Pose3D10appendPoseERNS_4MatxIdLi4ELi4EEE(ptr noundef nonnull align 8 dereferenceable(232) %33, ptr noundef nonnull align 8 dereferenceable(128) %5)
          to label %34 unwind label %44

34:                                               ; preds = %30
  call void @_ZN2cv3MatD1Ev(ptr noundef nonnull align 8 dereferenceable(96) %6) #21
  call void @llvm.lifetime.end.p0(i64 96, ptr nonnull %6) #21
  call void @llvm.lifetime.end.p0(i64 128, ptr nonnull %5) #21
  %indvars.iv.next = add nuw nsw i64 %indvars.iv, 1
  %35 = load ptr, ptr %8, align 8, !tbaa !180
  %36 = load ptr, ptr %3, align 8, !tbaa !183
  %37 = ptrtoint ptr %35 to i64
  %38 = ptrtoint ptr %36 to i64
  %39 = sub i64 %37, %38
  %sext = shl i64 %39, 28
  %40 = ashr i64 %sext, 32
  %41 = icmp slt i64 %indvars.iv.next, %40
  br i1 %41, label %.lr.ph, label %._crit_edge, !llvm.loop !192

42:                                               ; preds = %_ZN2cv4MatxIdLi4ELi4EE3eyeEv.exit
  %43 = landingpad { ptr, i32 }
          cleanup
  br label %46

44:                                               ; preds = %30, %24
  %45 = landingpad { ptr, i32 }
          cleanup
  br label %46

46:                                               ; preds = %44, %42
  %.sink = phi ptr [ %6, %44 ], [ %7, %42 ]
  %.pn = phi { ptr, i32 } [ %45, %44 ], [ %43, %42 ]
  call void @_ZN2cv3MatD1Ev(ptr noundef nonnull align 8 dereferenceable(96) %.sink) #21
  call void @llvm.lifetime.end.p0(i64 96, ptr nonnull %6) #21
  call void @llvm.lifetime.end.p0(i64 128, ptr nonnull %5) #21
  resume { ptr, i32 } %.pn
}